target datalayout = "e-m:e-p270:32:32-p271:32:32-p272:64:64-i64:64-i128:128-f80:128-n8:16:32:64-S128"
target triple = "x86_64-pc-linux-gnu"

%class.AbsSeq = type { ptr, i32, double, double, double, double, double }
%class.NumberSeq = type { %class.AbsSeq, double, double }

; Function Attrs: mustprogress nounwind uwtable
define hidden void @_ZN6AbsSeq3addEd(ptr noundef nonnull align 8 dereferenceable(56) %0, double noundef %1) unnamed_addr #1 align 2 {
  %3 = alloca ptr, align 8
  %4 = alloca double, align 8
  %5 = alloca double, align 8
  %6 = alloca double, align 8
  store ptr %0, ptr %3, align 8
  store double %1, ptr %4, align 8
  %7 = load ptr, ptr %3, align 8
  %8 = getelementptr inbounds %class.AbsSeq, ptr %7, i32 0, i32 1
  %9 = load i32, ptr %8, align 8
  %10 = icmp eq i32 %9, 0
  br i1 %10, label %11, label %15

11:                                               ; preds = %2
  %12 = load double, ptr %4, align 8
  %13 = getelementptr inbounds %class.AbsSeq, ptr %7, i32 0, i32 4
  store double %12, ptr %13, align 8
  %14 = getelementptr inbounds %class.AbsSeq, ptr %7, i32 0, i32 5
  store double 0.000000e+00, ptr %14, align 8
  br label %38

15:                                               ; preds = %2
  %16 = load double, ptr %4, align 8
  %17 = getelementptr inbounds %class.AbsSeq, ptr %7, i32 0, i32 4
  %18 = load double, ptr %17, align 8
  %19 = fsub double %16, %18
  store double %19, ptr %5, align 8
  %20 = getelementptr inbounds %class.AbsSeq, ptr %7, i32 0, i32 6
  %21 = load double, ptr %20, align 8
  %22 = load double, ptr %5, align 8
  %23 = fmul double %21, %22
  store double %23, ptr %6, align 8
  %24 = load double, ptr %6, align 8
  %25 = getelementptr inbounds %class.AbsSeq, ptr %7, i32 0, i32 4
  %26 = load double, ptr %25, align 8
  %27 = fadd double %26, %24
  store double %27, ptr %25, align 8
  %28 = getelementptr inbounds %class.AbsSeq, ptr %7, i32 0, i32 6
  %29 = load double, ptr %28, align 8
  %30 = fsub double 1.000000e+00, %29
  %31 = getelementptr inbounds %class.AbsSeq, ptr %7, i32 0, i32 5
  %32 = load double, ptr %31, align 8
  %33 = load double, ptr %5, align 8
  %34 = load double, ptr %6, align 8
  %35 = call double @llvm.fmuladd.f64(double %33, double %34, double %32)
  %36 = fmul double %30, %35
  %37 = getelementptr inbounds %class.AbsSeq, ptr %7, i32 0, i32 5
  store double %36, ptr %37, align 8
  br label %38

38:                                               ; preds = %15, %11
  ret void
}

; Function Attrs: mustprogress nounwind uwtable
define hidden void @_ZN9NumberSeq3addEd(ptr noundef nonnull align 8 dereferenceable(72) %0, double noundef %1) unnamed_addr #1 align 2 {
  %3 = alloca ptr, align 8
  %4 = alloca double, align 8
  store ptr %0, ptr %3, align 8
  store double %1, ptr %4, align 8
  %5 = load ptr, ptr %3, align 8
  %6 = load double, ptr %4, align 8
  call void @_ZN6AbsSeq3addEd(ptr noundef nonnull align 8 dereferenceable(56) %5, double noundef %6)
  %7 = load double, ptr %4, align 8
  %8 = getelementptr inbounds %class.NumberSeq, ptr %5, i32 0, i32 1
  store double %7, ptr %8, align 8
  %9 = getelementptr inbounds %class.AbsSeq, ptr %5, i32 0, i32 1
  %10 = load i32, ptr %9, align 8
  %11 = icmp eq i32 %10, 0
  br i1 %11, label %12, label %15

12:                                               ; preds = %2
  %13 = load double, ptr %4, align 8
  %14 = getelementptr inbounds %class.NumberSeq, ptr %5, i32 0, i32 2
  store double %13, ptr %14, align 8
  br label %24

15:                                               ; preds = %2
  %16 = load double, ptr %4, align 8
  %17 = getelementptr inbounds %class.NumberSeq, ptr %5, i32 0, i32 2
  %18 = load double, ptr %17, align 8
  %19 = fcmp ogt double %16, %18
  br i1 %19, label %20, label %23

20:                                               ; preds = %15
  %21 = load double, ptr %4, align 8
  %22 = getelementptr inbounds %class.NumberSeq, ptr %5, i32 0, i32 2
  store double %21, ptr %22, align 8
  br label %23

23:                                               ; preds = %20, %15
  br label %24

24:                                               ; preds = %23, %12
  %25 = load double, ptr %4, align 8
  %26 = getelementptr inbounds %class.AbsSeq, ptr %5, i32 0, i32 2
  %27 = load double, ptr %26, align 8
  %28 = fadd double %27, %25
  store double %28, ptr %26, align 8
  %29 = load double, ptr %4, align 8
  %30 = load double, ptr %4, align 8
  %31 = getelementptr inbounds %class.AbsSeq, ptr %5, i32 0, i32 3
  %32 = load double, ptr %31, align 8
  %33 = call double @llvm.fmuladd.f64(double %29, double %30, double %32)
  store double %33, ptr %31, align 8
  %34 = getelementptr inbounds %class.AbsSeq, ptr %5, i32 0, i32 1
  %35 = load i32, ptr %34, align 8
  %36 = add nsw i32 %35, 1
  store i32 %36, ptr %34, align 8
  ret void
}