; Function Attrs: mustprogress nofree norecurse nosync nounwind willreturn memory(write, argmem: readwrite, inaccessiblemem: none) uwtable
define hidden void @_ZN9NumberSeq3addEd(ptr nocapture noundef nonnull align 8 dereferenceable(72) %0, double noundef %1) unnamed_addr #8 align 2 {
  %3 = getelementptr inbounds i8, ptr %0, i64 8
  %4 = load i32, ptr %3, align 8
  %5 = icmp eq i32 %4, 0
  %6 = getelementptr inbounds i8, ptr %0, i64 32
  br i1 %5, label %7, label %11

7:                                                ; preds = %2
  store double %1, ptr %6, align 8
  %8 = getelementptr inbounds i8, ptr %0, i64 40
  store double 0.000000e+00, ptr %8, align 8
  %9 = getelementptr inbounds i8, ptr %0, i64 56
  store double %1, ptr %9, align 8
  %10 = getelementptr inbounds i8, ptr %0, i64 64
  br label %.sink.split

11:                                               ; preds = %2
  %12 = load double, ptr %6, align 8
  %13 = fsub double %1, %12
  %14 = getelementptr inbounds i8, ptr %0, i64 48
  %15 = load double, ptr %14, align 8
  %16 = fmul double %15, %13
  %17 = fadd double %12, %16
  store double %17, ptr %6, align 8
  %18 = fsub double 1.000000e+00, %15
  %19 = getelementptr inbounds i8, ptr %0, i64 40
  %20 = load double, ptr %19, align 8
  %21 = tail call double @llvm.fmuladd.f64(double %13, double %16, double %20)
  %22 = fmul double %18, %21
  store double %22, ptr %19, align 8
  %23 = getelementptr inbounds i8, ptr %0, i64 56
  store double %1, ptr %23, align 8
  %24 = getelementptr inbounds i8, ptr %0, i64 64
  %25 = load double, ptr %24, align 8
  %26 = fcmp olt double %25, %1
  br i1 %26, label %.sink.split, label %27

.sink.split:                                      ; preds = %11, %7
  %.sink = phi ptr [ %10, %7 ], [ %24, %11 ]
  store double %1, ptr %.sink, align 8
  br label %27

27:                                               ; preds = %.sink.split, %11
  %28 = getelementptr inbounds i8, ptr %0, i64 16
  %29 = load double, ptr %28, align 8
  %30 = fadd double %29, %1
  store double %30, ptr %28, align 8
  %31 = getelementptr inbounds i8, ptr %0, i64 24
  %32 = load double, ptr %31, align 8
  %33 = tail call double @llvm.fmuladd.f64(double %1, double %1, double %32)
  store double %33, ptr %31, align 8
  %34 = add nsw i32 %4, 1
  store i32 %34, ptr %3, align 8
  ret void
}